target datalayout = "e-m:e-p270:32:32-p271:32:32-p272:64:64-i64:64-i128:128-f80:128-n8:16:32:64-S128"
target triple = "x86_64-pc-linux-gnu"

%struct.adc_stream = type { ptr, i64, i64, ptr, i64, i64, ptr, ptr, i32, i16, i16, i32 }

; Function Attrs: nounwind uwtable
define i32 @adc_decompressEnd(ptr noundef %0) #0 {
  %2 = alloca i32, align 4
  %3 = alloca ptr, align 8
  store ptr %0, ptr %3, align 8
  %4 = load ptr, ptr %3, align 8
  %5 = icmp eq ptr %4, null
  br i1 %5, label %6, label %7

6:                                                ; preds = %1
  store i32 -3, ptr %2, align 4
  br label %32

7:                                                ; preds = %1
  %8 = load ptr, ptr %3, align 8
  %9 = getelementptr inbounds %struct.adc_stream, ptr %8, i32 0, i32 9
  %10 = load i16, ptr %9, align 4
  %11 = zext i16 %10 to i32
  %12 = icmp eq i32 %11, 0
  br i1 %12, label %13, label %14

13:                                               ; preds = %7
  store i32 -2, ptr %2, align 4
  br label %32

14:                                               ; preds = %7
  %15 = load ptr, ptr %3, align 8
  %16 = getelementptr inbounds %struct.adc_stream, ptr %15, i32 0, i32 6
  %17 = load ptr, ptr %16, align 8
  %18 = icmp ne ptr %17, null
  br i1 %18, label %19, label %23

19:                                               ; preds = %14
  %20 = load ptr, ptr %3, align 8
  %21 = getelementptr inbounds %struct.adc_stream, ptr %20, i32 0, i32 6
  %22 = load ptr, ptr %21, align 8
  call void @free(ptr noundef %22) #5
  br label %23

23:                                               ; preds = %19, %14
  %24 = load ptr, ptr %3, align 8
  %25 = getelementptr inbounds %struct.adc_stream, ptr %24, i32 0, i32 8
  store i32 0, ptr %25, align 8
  %26 = load ptr, ptr %3, align 8
  %27 = getelementptr inbounds %struct.adc_stream, ptr %26, i32 0, i32 9
  store i16 0, ptr %27, align 4
  %28 = load ptr, ptr %3, align 8
  %29 = getelementptr inbounds %struct.adc_stream, ptr %28, i32 0, i32 10
  store i16 0, ptr %29, align 2
  %30 = load ptr, ptr %3, align 8
  %31 = getelementptr inbounds %struct.adc_stream, ptr %30, i32 0, i32 11
  store i32 0, ptr %31, align 8
  store i32 0, ptr %2, align 4
  br label %32

32:                                               ; preds = %23, %13, %6
  %33 = load i32, ptr %2, align 4
  ret i32 %33
}