; Function Attrs: mustprogress nounwind willreturn uwtable
define noundef i32 @adc_decompressEnd(ptr noundef %0) local_unnamed_addr #4 {
  %2 = icmp eq ptr %0, null
  br i1 %2, label %13, label %3

3:                                                ; preds = %1
  %4 = getelementptr inbounds i8, ptr %0, i64 68
  %5 = load i16, ptr %4, align 4
  %6 = icmp eq i16 %5, 0
  br i1 %6, label %13, label %7

7:                                                ; preds = %3
  %8 = getelementptr inbounds i8, ptr %0, i64 48
  %9 = load ptr, ptr %8, align 8
  %.not = icmp eq ptr %9, null
  br i1 %.not, label %11, label %10

10:                                               ; preds = %7
  tail call void @free(ptr noundef nonnull %9) #8
  br label %11

11:                                               ; preds = %10, %7
  %12 = getelementptr inbounds i8, ptr %0, i64 64
  tail call void @llvm.memset.p0.i64(ptr noundef nonnull align 8 dereferenceable(12) %12, i8 0, i64 12, i1 false)
  br label %13

13:                                               ; preds = %3, %1, %11
  %.0 = phi i32 [ 0, %11 ], [ -3, %1 ], [ -2, %3 ]
  ret i32 %.0
}